target datalayout = "e-m:e-p270:32:32-p271:32:32-p272:64:64-i64:64-i128:128-f80:128-n8:16:32:64-S128"
target triple = "x86_64-pc-linux-gnu"

%"class.ncnn::Mat" = type { ptr, ptr, i64, i32, ptr, i32, i32, i32, i32, i32, i64 }
%"class.ncnn::ParamDict" = type { ptr, ptr }

@stderr = external global ptr, align 8
@.str = private unnamed_addr constant [96 x i8] c"copy_cut_border parameter error, top: %d, bottom: %d, left: %d, right: %d, src.w: %d, src.h: %d\00", align 1
@.str.1 = private unnamed_addr constant [2 x i8] c"\0A\00", align 1

; Function Attrs: mustprogress uwtable
define hidden void @_ZN4ncnn15copy_cut_borderERKNS_3MatERS0_iiiiRKNS_6OptionE(ptr noundef nonnull align 8 dereferenceable(72) %0, ptr noundef nonnull align 8 dereferenceable(72) %1, i32 noundef %2, i32 noundef %3, i32 noundef %4, i32 noundef %5, ptr noundef nonnull align 8 dereferenceable(64) %6) #0 personality ptr @__gxx_personality_v0 {
  %8 = alloca ptr, align 8
  %9 = alloca ptr, align 8
  %10 = alloca i32, align 4
  %11 = alloca i32, align 4
  %12 = alloca i32, align 4
  %13 = alloca i32, align 4
  %14 = alloca ptr, align 8
  %15 = alloca ptr, align 8
  %16 = alloca %"class.ncnn::ParamDict", align 8
  %17 = alloca ptr, align 8
  %18 = alloca i32, align 4
  store ptr %0, ptr %8, align 8, !tbaa !4
  store ptr %1, ptr %9, align 8, !tbaa !4
  store i32 %2, ptr %10, align 4, !tbaa !25
  store i32 %3, ptr %11, align 4, !tbaa !25
  store i32 %4, ptr %12, align 4, !tbaa !25
  store i32 %5, ptr %13, align 4, !tbaa !25
  store ptr %6, ptr %14, align 8, !tbaa !51
  %19 = load i32, ptr %12, align 4, !tbaa !25
  %20 = load i32, ptr %13, align 4, !tbaa !25
  %21 = add nsw i32 %19, %20
  %22 = load ptr, ptr %8, align 8, !tbaa !4
  %23 = getelementptr inbounds nuw %"class.ncnn::Mat", ptr %22, i32 0, i32 6
  %24 = load i32, ptr %23, align 4, !tbaa !16
  %25 = icmp sgt i32 %21, %24
  br i1 %25, label %34, label %26

26:                                               ; preds = %7
  %27 = load i32, ptr %10, align 4, !tbaa !25
  %28 = load i32, ptr %11, align 4, !tbaa !25
  %29 = add nsw i32 %27, %28
  %30 = load ptr, ptr %8, align 8, !tbaa !4
  %31 = getelementptr inbounds nuw %"class.ncnn::Mat", ptr %30, i32 0, i32 7
  %32 = load i32, ptr %31, align 8, !tbaa !19
  %33 = icmp sgt i32 %29, %32
  br i1 %33, label %34, label %51

34:                                               ; preds = %26, %7
  br label %35

35:                                               ; preds = %34
  %36 = load ptr, ptr @stderr, align 8, !tbaa !57
  %37 = load i32, ptr %10, align 4, !tbaa !25
  %38 = load i32, ptr %11, align 4, !tbaa !25
  %39 = load i32, ptr %12, align 4, !tbaa !25
  %40 = load i32, ptr %13, align 4, !tbaa !25
  %41 = load ptr, ptr %8, align 8, !tbaa !4
  %42 = getelementptr inbounds nuw %"class.ncnn::Mat", ptr %41, i32 0, i32 6
  %43 = load i32, ptr %42, align 4, !tbaa !16
  %44 = load ptr, ptr %8, align 8, !tbaa !4
  %45 = getelementptr inbounds nuw %"class.ncnn::Mat", ptr %44, i32 0, i32 7
  %46 = load i32, ptr %45, align 8, !tbaa !19
  %47 = call i32 (ptr, ptr, ...) @fprintf(ptr noundef %36, ptr noundef @.str, i32 noundef %37, i32 noundef %38, i32 noundef %39, i32 noundef %40, i32 noundef %43, i32 noundef %46) #9
  %48 = load ptr, ptr @stderr, align 8, !tbaa !57
  %49 = call i32 (ptr, ptr, ...) @fprintf(ptr noundef %48, ptr noundef @.str.1) #9
  br label %50

50:                                               ; preds = %35
  br label %111

51:                                               ; preds = %26
  call void @llvm.lifetime.start.p0(i64 8, ptr %15) #9
  %52 = call noundef ptr @_ZN4ncnn12create_layerEi(i32 noundef 7)
  store ptr %52, ptr %15, align 8, !tbaa !39
  call void @llvm.lifetime.start.p0(i64 16, ptr %16) #9
  call void @_ZN4ncnn9ParamDictC1Ev(ptr noundef nonnull align 8 dereferenceable(16) %16)
  %53 = load i32, ptr %12, align 4, !tbaa !25
  invoke void @_ZN4ncnn9ParamDict3setEii(ptr noundef nonnull align 8 dereferenceable(16) %16, i32 noundef 0, i32 noundef %53)
          to label %54 unwind label %112

54:                                               ; preds = %51
  %55 = load i32, ptr %10, align 4, !tbaa !25
  invoke void @_ZN4ncnn9ParamDict3setEii(ptr noundef nonnull align 8 dereferenceable(16) %16, i32 noundef 1, i32 noundef %55)
          to label %56 unwind label %112

56:                                               ; preds = %54
  invoke void @_ZN4ncnn9ParamDict3setEii(ptr noundef nonnull align 8 dereferenceable(16) %16, i32 noundef 2, i32 noundef 0)
          to label %57 unwind label %112

57:                                               ; preds = %56
  %58 = load ptr, ptr %8, align 8, !tbaa !4
  %59 = getelementptr inbounds nuw %"class.ncnn::Mat", ptr %58, i32 0, i32 6
  %60 = load i32, ptr %59, align 4, !tbaa !16
  %61 = load i32, ptr %12, align 4, !tbaa !25
  %62 = sub nsw i32 %60, %61
  %63 = load i32, ptr %13, align 4, !tbaa !25
  %64 = sub nsw i32 %62, %63
  invoke void @_ZN4ncnn9ParamDict3setEii(ptr noundef nonnull align 8 dereferenceable(16) %16, i32 noundef 3, i32 noundef %64)
          to label %65 unwind label %112

65:                                               ; preds = %57
  %66 = load ptr, ptr %8, align 8, !tbaa !4
  %67 = getelementptr inbounds nuw %"class.ncnn::Mat", ptr %66, i32 0, i32 7
  %68 = load i32, ptr %67, align 8, !tbaa !19
  %69 = load i32, ptr %10, align 4, !tbaa !25
  %70 = sub nsw i32 %68, %69
  %71 = load i32, ptr %11, align 4, !tbaa !25
  %72 = sub nsw i32 %70, %71
  invoke void @_ZN4ncnn9ParamDict3setEii(ptr noundef nonnull align 8 dereferenceable(16) %16, i32 noundef 4, i32 noundef %72)
          to label %73 unwind label %112

73:                                               ; preds = %65
  invoke void @_ZN4ncnn9ParamDict3setEii(ptr noundef nonnull align 8 dereferenceable(16) %16, i32 noundef 5, i32 noundef -233)
          to label %74 unwind label %112

74:                                               ; preds = %73
  %75 = load ptr, ptr %15, align 8, !tbaa !39
  %76 = load ptr, ptr %75, align 8, !tbaa !30
  %77 = getelementptr inbounds ptr, ptr %76, i64 2
  %78 = load ptr, ptr %77, align 8
  %79 = invoke noundef i32 %78(ptr noundef nonnull align 8 dereferenceable(208) %75, ptr noundef nonnull align 8 dereferenceable(16) %16)
          to label %80 unwind label %112

80:                                               ; preds = %74
  %81 = load ptr, ptr %15, align 8, !tbaa !39
  %82 = load ptr, ptr %14, align 8, !tbaa !51
  %83 = load ptr, ptr %81, align 8, !tbaa !30
  %84 = getelementptr inbounds ptr, ptr %83, i64 4
  %85 = load ptr, ptr %84, align 8
  %86 = invoke noundef i32 %85(ptr noundef nonnull align 8 dereferenceable(208) %81, ptr noundef nonnull align 8 dereferenceable(64) %82)
          to label %87 unwind label %112

87:                                               ; preds = %80
  %88 = load ptr, ptr %15, align 8, !tbaa !39
  %89 = load ptr, ptr %8, align 8, !tbaa !4
  %90 = load ptr, ptr %9, align 8, !tbaa !4
  %91 = load ptr, ptr %14, align 8, !tbaa !51
  %92 = load ptr, ptr %88, align 8, !tbaa !30
  %93 = getelementptr inbounds ptr, ptr %92, i64 7
  %94 = load ptr, ptr %93, align 8
  %95 = invoke noundef i32 %94(ptr noundef nonnull align 8 dereferenceable(208) %88, ptr noundef nonnull align 8 dereferenceable(72) %89, ptr noundef nonnull align 8 dereferenceable(72) %90, ptr noundef nonnull align 8 dereferenceable(64) %91)
          to label %96 unwind label %112

96:                                               ; preds = %87
  %97 = load ptr, ptr %15, align 8, !tbaa !39
  %98 = load ptr, ptr %14, align 8, !tbaa !51
  %99 = load ptr, ptr %97, align 8, !tbaa !30
  %100 = getelementptr inbounds ptr, ptr %99, i64 5
  %101 = load ptr, ptr %100, align 8
  %102 = invoke noundef i32 %101(ptr noundef nonnull align 8 dereferenceable(208) %97, ptr noundef nonnull align 8 dereferenceable(64) %98)
          to label %103 unwind label %112

103:                                              ; preds = %96
  %104 = load ptr, ptr %15, align 8, !tbaa !39
  %105 = icmp eq ptr %104, null
  br i1 %105, label %110, label %106

106:                                              ; preds = %103
  %107 = load ptr, ptr %104, align 8, !tbaa !30
  %108 = getelementptr inbounds ptr, ptr %107, i64 1
  %109 = load ptr, ptr %108, align 8
  call void %109(ptr noundef nonnull align 8 dereferenceable(208) %104) #9
  br label %110

110:                                              ; preds = %106, %103
  call void @_ZN4ncnn9ParamDictD1Ev(ptr noundef nonnull align 8 dereferenceable(16) %16) #9
  call void @llvm.lifetime.end.p0(i64 16, ptr %16) #9
  call void @llvm.lifetime.end.p0(i64 8, ptr %15) #9
  br label %111

111:                                              ; preds = %110, %50
  ret void

112:                                              ; preds = %96, %87, %80, %74, %73, %65, %57, %56, %54, %51
  %113 = landingpad { ptr, i32 }
          cleanup
  %114 = extractvalue { ptr, i32 } %113, 0
  store ptr %114, ptr %17, align 8
  %115 = extractvalue { ptr, i32 } %113, 1
  store i32 %115, ptr %18, align 4
  call void @_ZN4ncnn9ParamDictD1Ev(ptr noundef nonnull align 8 dereferenceable(16) %16) #9
  call void @llvm.lifetime.end.p0(i64 16, ptr %16) #9
  call void @llvm.lifetime.end.p0(i64 8, ptr %15) #9
  br label %116

116:                                              ; preds = %112
  %117 = load ptr, ptr %17, align 8
  %118 = load i32, ptr %18, align 4
  %119 = insertvalue { ptr, i32 } poison, ptr %117, 0
  %120 = insertvalue { ptr, i32 } %119, i32 %118, 1
  resume { ptr, i32 } %120
}