; Function Attrs: mustprogress uwtable
define hidden void @_ZN4ncnn15copy_cut_borderERKNS_3MatERS0_iiiiRKNS_6OptionE(ptr noundef nonnull align 8 dereferenceable(72) %0, ptr noundef nonnull align 8 dereferenceable(72) %1, i32 noundef %2, i32 noundef %3, i32 noundef %4, i32 noundef %5, ptr noundef nonnull align 8 dereferenceable(64) %6) local_unnamed_addr #0 personality ptr @__gxx_personality_v0 {
  %8 = alloca %"class.ncnn::ParamDict", align 8
  %9 = add nsw i32 %5, %4
  %10 = getelementptr inbounds nuw i8, ptr %0, i64 44
  %11 = load i32, ptr %10, align 4, !tbaa !16
  %12 = icmp sgt i32 %9, %11
  br i1 %12, label %._crit_edge, label %13

._crit_edge:                                      ; preds = %7
  %.phi.trans.insert = getelementptr inbounds nuw i8, ptr %0, i64 48
  %.pre = load i32, ptr %.phi.trans.insert, align 8, !tbaa !20
  br label %18

13:                                               ; preds = %7
  %14 = add nsw i32 %3, %2
  %15 = getelementptr inbounds nuw i8, ptr %0, i64 48
  %16 = load i32, ptr %15, align 8, !tbaa !20
  %17 = icmp sgt i32 %14, %16
  br i1 %17, label %18, label %23

18:                                               ; preds = %._crit_edge, %13
  %19 = phi i32 [ %.pre, %._crit_edge ], [ %16, %13 ]
  %20 = load ptr, ptr @stderr, align 8, !tbaa !48
  %21 = tail call i32 (ptr, ptr, ...) @fprintf(ptr noundef %20, ptr noundef nonnull @.str, i32 noundef %2, i32 noundef %3, i32 noundef %4, i32 noundef %5, i32 noundef %11, i32 noundef %19) #14
  %22 = load ptr, ptr @stderr, align 8, !tbaa !48
  %fputc = tail call i32 @fputc(i32 10, ptr %22)
  br label %58

23:                                               ; preds = %13
  %24 = tail call noundef ptr @_ZN4ncnn12create_layerEi(i32 noundef 7)
  call void @llvm.lifetime.start.p0(i64 16, ptr nonnull %8) #12
  call void @_ZN4ncnn9ParamDictC1Ev(ptr noundef nonnull align 8 dereferenceable(16) %8)
  invoke void @_ZN4ncnn9ParamDict3setEii(ptr noundef nonnull align 8 dereferenceable(16) %8, i32 noundef 0, i32 noundef %4)
          to label %25 unwind label %59

25:                                               ; preds = %23
  invoke void @_ZN4ncnn9ParamDict3setEii(ptr noundef nonnull align 8 dereferenceable(16) %8, i32 noundef 1, i32 noundef %2)
          to label %26 unwind label %59

26:                                               ; preds = %25
  invoke void @_ZN4ncnn9ParamDict3setEii(ptr noundef nonnull align 8 dereferenceable(16) %8, i32 noundef 2, i32 noundef 0)
          to label %27 unwind label %59

27:                                               ; preds = %26
  %28 = load i32, ptr %10, align 4, !tbaa !16
  %29 = sub i32 %28, %9
  invoke void @_ZN4ncnn9ParamDict3setEii(ptr noundef nonnull align 8 dereferenceable(16) %8, i32 noundef 3, i32 noundef %29)
          to label %30 unwind label %59

30:                                               ; preds = %27
  %31 = load i32, ptr %15, align 8, !tbaa !20
  %32 = sub i32 %31, %14
  invoke void @_ZN4ncnn9ParamDict3setEii(ptr noundef nonnull align 8 dereferenceable(16) %8, i32 noundef 4, i32 noundef %32)
          to label %33 unwind label %59

33:                                               ; preds = %30
  invoke void @_ZN4ncnn9ParamDict3setEii(ptr noundef nonnull align 8 dereferenceable(16) %8, i32 noundef 5, i32 noundef -233)
          to label %34 unwind label %59

34:                                               ; preds = %33
  %35 = load ptr, ptr %24, align 8, !tbaa !31
  %36 = getelementptr inbounds nuw i8, ptr %35, i64 16
  %37 = load ptr, ptr %36, align 8
  %38 = invoke noundef i32 %37(ptr noundef nonnull align 8 dereferenceable(208) %24, ptr noundef nonnull align 8 dereferenceable(16) %8)
          to label %39 unwind label %59

39:                                               ; preds = %34
  %40 = load ptr, ptr %24, align 8, !tbaa !31
  %41 = getelementptr inbounds nuw i8, ptr %40, i64 32
  %42 = load ptr, ptr %41, align 8
  %43 = invoke noundef i32 %42(ptr noundef nonnull align 8 dereferenceable(208) %24, ptr noundef nonnull align 8 dereferenceable(64) %6)
          to label %44 unwind label %59

44:                                               ; preds = %39
  %45 = load ptr, ptr %24, align 8, !tbaa !31
  %46 = getelementptr inbounds nuw i8, ptr %45, i64 56
  %47 = load ptr, ptr %46, align 8
  %48 = invoke noundef i32 %47(ptr noundef nonnull align 8 dereferenceable(208) %24, ptr noundef nonnull align 8 dereferenceable(72) %0, ptr noundef nonnull align 8 dereferenceable(72) %1, ptr noundef nonnull align 8 dereferenceable(64) %6)
          to label %49 unwind label %59

49:                                               ; preds = %44
  %50 = load ptr, ptr %24, align 8, !tbaa !31
  %51 = getelementptr inbounds nuw i8, ptr %50, i64 40
  %52 = load ptr, ptr %51, align 8
  %53 = invoke noundef i32 %52(ptr noundef nonnull align 8 dereferenceable(208) %24, ptr noundef nonnull align 8 dereferenceable(64) %6)
          to label %54 unwind label %59

54:                                               ; preds = %49
  %55 = load ptr, ptr %24, align 8, !tbaa !31
  %56 = getelementptr inbounds nuw i8, ptr %55, i64 8
  %57 = load ptr, ptr %56, align 8
  call void %57(ptr noundef nonnull align 8 dereferenceable(208) %24) #12
  call void @_ZN4ncnn9ParamDictD1Ev(ptr noundef nonnull align 8 dereferenceable(16) %8) #12
  call void @llvm.lifetime.end.p0(i64 16, ptr nonnull %8) #12
  br label %58

58:                                               ; preds = %54, %18
  ret void

59:                                               ; preds = %49, %44, %39, %34, %33, %30, %27, %26, %25, %23
  %60 = landingpad { ptr, i32 }
          cleanup
  call void @_ZN4ncnn9ParamDictD1Ev(ptr noundef nonnull align 8 dereferenceable(16) %8) #12
  call void @llvm.lifetime.end.p0(i64 16, ptr nonnull %8) #12
  resume { ptr, i32 } %60
}